; Function Attrs: nounwind uwtable
define hidden zeroext i8 @isArray(ptr noundef %0) local_unnamed_addr #0 {
  %2 = tail call ptr @getEnv()
  tail call void @createLocalRefSpace(ptr noundef %2, i32 noundef 1)
  %3 = load ptr, ptr @gdata, align 8
  %4 = getelementptr inbounds i8, ptr %3, i64 528
  %5 = load i32, ptr %4, align 8
  %6 = and i32 %5, 2
  %.not = icmp eq i32 %6, 0
  br i1 %.not, label %8, label %7

7:                                                ; preds = %1
  tail call void @log_message_begin(ptr noundef nonnull @.str.8, ptr noundef nonnull @.str.4, i32 noundef 1576) #14
  tail call void (ptr, ...) @log_message_end(ptr noundef nonnull @.str.9, ptr noundef nonnull @.str.63) #14
  br label %8

8:                                                ; preds = %1, %7
  %9 = load ptr, ptr %2, align 8
  %10 = getelementptr inbounds i8, ptr %9, i64 248
  %11 = load ptr, ptr %10, align 8
  %12 = tail call ptr %11(ptr noundef nonnull %2, ptr noundef %0) #14
  %13 = tail call fastcc zeroext i8 @isArrayClass(ptr noundef %12)
  %14 = load ptr, ptr @gdata, align 8
  %15 = getelementptr inbounds i8, ptr %14, i64 528
  %16 = load i32, ptr %15, align 8
  %17 = and i32 %16, 2
  %.not7 = icmp eq i32 %17, 0
  br i1 %.not7, label %19, label %18

18:                                               ; preds = %8
  tail call void @log_message_begin(ptr noundef nonnull @.str.8, ptr noundef nonnull @.str.4, i32 noundef 1578) #14
  tail call void (ptr, ...) @log_message_end(ptr noundef nonnull @.str.9, ptr noundef nonnull @.str.61) #14
  br label %19

19:                                               ; preds = %8, %18
  %20 = load ptr, ptr %2, align 8
  %21 = getelementptr inbounds i8, ptr %20, i64 160
  %22 = load ptr, ptr %21, align 8
  %23 = tail call ptr %22(ptr noundef nonnull %2, ptr noundef null) #14
  ret i8 %13
}